; Function Attrs: mustprogress nofree norecurse nosync nounwind willreturn memory(argmem: read) uwtable
define dso_local noundef zeroext i1 @_ZN4llvm16AArch64InstrInfo20isTailCallReturnInstERKNS_12MachineInstrE(ptr nocapture noundef nonnull readonly align 8 dereferenceable(70) %0) local_unnamed_addr #9 align 2 {
  %2 = getelementptr inbounds nuw i8, ptr %0, i64 68
  %3 = load i16, ptr %2, align 4
  switch i16 %3, label %5 [
    i16 1223, label %4
    i16 1224, label %4
    i16 1227, label %4
    i16 1228, label %4
    i16 1226, label %4
    i16 1225, label %4
    i16 358, label %4
    i16 359, label %4
  ]

4:                                                ; preds = %1, %1, %1, %1, %1, %1, %1, %1
  br label %5

5:                                                ; preds = %1, %4
  %.0 = phi i1 [ true, %4 ], [ false, %1 ]
  ret i1 %.0
}